; Function Attrs: mustprogress nounwind uwtable
define dso_local noundef zeroext i1 @_ZNK4llvm17X86TargetLowering30allowsMisalignedMemoryAccessesENS_3EVTEjNS_5AlignENS_17MachineMemOperand5FlagsEPj(ptr noundef nonnull readonly align 8 captures(none) dereferenceable(408160) %0, i16 %1, ptr %2, i32 %3, i8 %4, i16 noundef zeroext %5, ptr noundef writeonly %6) unnamed_addr #0 align 2 {
  %8 = alloca %"struct.llvm::EVT", align 8
  store i16 %1, ptr %8, align 8
  %9 = getelementptr inbounds nuw i8, ptr %8, i64 8
  store ptr %2, ptr %9, align 8
  %.not = icmp eq ptr %6, null
  br i1 %.not, label %13, label %10

10:                                               ; preds = %7
  %11 = tail call noundef zeroext i1 @_ZNK4llvm17X86TargetLowering18isMemoryAccessFastENS_3EVTENS_5AlignE(ptr noundef nonnull align 8 dereferenceable(408160) %0, i16 %1, ptr %2, i8 %4)
  %12 = zext i1 %11 to i32
  store i32 %12, ptr %6, align 4
  br label %13

13:                                               ; preds = %10, %7
  %14 = and i16 %5, 8
  %.not11 = icmp eq i16 %14, 0
  br i1 %.not11, label %29, label %15

15:                                               ; preds = %13
  %.not.i = icmp eq i16 %1, 0
  br i1 %.not.i, label %_ZNK4llvm3EVT8isVectorEv.exit, label %16

16:                                               ; preds = %15
  %17 = add i16 %1, -17
  %spec.select.i.i = icmp ult i16 %17, 173
  br i1 %spec.select.i.i, label %19, label %29

_ZNK4llvm3EVT8isVectorEv.exit:                    ; preds = %15
  %18 = call noundef zeroext i1 @_ZNK4llvm3EVT16isExtendedVectorEv(ptr noundef nonnull align 8 dereferenceable(16) %8) #22
  br i1 %18, label %19, label %29

19:                                               ; preds = %16, %_ZNK4llvm3EVT8isVectorEv.exit
  %20 = and i16 %5, 1
  %.not12 = icmp eq i16 %20, 0
  br i1 %.not12, label %29, label %21

21:                                               ; preds = %19
  %22 = icmp ult i8 %4, 4
  br i1 %22, label %29, label %23

23:                                               ; preds = %21
  %24 = getelementptr inbounds nuw i8, ptr %0, i64 408128
  %25 = load ptr, ptr %24, align 8
  %26 = getelementptr inbounds nuw i8, ptr %25, i64 304
  %27 = load i32, ptr %26, align 8
  %28 = icmp slt i32 %27, 5
  br label %29

29:                                               ; preds = %16, %13, %_ZNK4llvm3EVT8isVectorEv.exit, %19, %21, %23
  %.0 = phi i1 [ true, %21 ], [ %28, %23 ], [ false, %19 ], [ true, %_ZNK4llvm3EVT8isVectorEv.exit ], [ true, %13 ], [ true, %16 ]
  ret i1 %.0
}